target datalayout = "e-m:e-p270:32:32-p271:32:32-p272:64:64-i64:64-i128:128-f80:128-n8:16:32:64-S128"
target triple = "x86_64-pc-linux-gnu"

%"struct.(anonymous namespace)::COEFS" = type { float, float, float, float }
%struct.PJconsts = type <{ ptr, ptr, ptr, ptr, ptr, ptr, ptr, ptr, ptr, ptr, ptr, ptr, i32, [4 x i8], ptr, ptr, ptr, ptr, ptr, ptr, ptr, ptr, double, double, double, double, double, double, double, double, double, double, double, double, double, double, double, double, double, double, double, double, double, double, i32, i32, i32, i32, i32, i32, i32, i32, i32, i32, i32, [4 x i8], ptr, ptr, ptr, ptr, ptr, ptr, double, double, double, double, double, double, double, double, double, double, double, i32, [4 x i8], [7 x double], i32, [4 x i8], ptr, ptr, double, double, i32, [4 x i8], %"class.std::shared_ptr", i8, [7 x i8], double, i8, [7 x i8], %"class.std::__cxx11::basic_string", %"class.std::__cxx11::basic_string", %"class.std::__cxx11::basic_string", i8, [7 x i8], %"class.std::vector", i32, [4 x i8], %"class.std::vector.3", i32, i8, i8, i8, i8 }>
%"class.std::shared_ptr" = type { %"class.std::__shared_ptr" }
%"class.std::__shared_ptr" = type { ptr, %"class.std::__shared_count" }
%"class.std::__shared_count" = type { ptr }
%"class.std::__cxx11::basic_string" = type { %"struct.std::__cxx11::basic_string<char>::_Alloc_hider", i64, %union.anon }
%"struct.std::__cxx11::basic_string<char>::_Alloc_hider" = type { ptr }
%union.anon = type { i64, [8 x i8] }
%"class.std::vector" = type { %"struct.std::_Vector_base" }
%"struct.std::_Vector_base" = type { %"struct.std::_Vector_base<osgeo::proj::operation::GridDescription, std::allocator<osgeo::proj::operation::GridDescription>>::_Vector_impl" }
%"struct.std::_Vector_base<osgeo::proj::operation::GridDescription, std::allocator<osgeo::proj::operation::GridDescription>>::_Vector_impl" = type { %"struct.std::_Vector_base<osgeo::proj::operation::GridDescription, std::allocator<osgeo::proj::operation::GridDescription>>::_Vector_impl_data" }
%"struct.std::_Vector_base<osgeo::proj::operation::GridDescription, std::allocator<osgeo::proj::operation::GridDescription>>::_Vector_impl_data" = type { ptr, ptr, ptr }
%"class.std::vector.3" = type { %"struct.std::_Vector_base.4" }
%"struct.std::_Vector_base.4" = type { %"struct.std::_Vector_base<PJCoordOperation, std::allocator<PJCoordOperation>>::_Vector_impl" }
%"struct.std::_Vector_base<PJCoordOperation, std::allocator<PJCoordOperation>>::_Vector_impl" = type { %"struct.std::_Vector_base<PJCoordOperation, std::allocator<PJCoordOperation>>::_Vector_impl_data" }
%"struct.std::_Vector_base<PJCoordOperation, std::allocator<PJCoordOperation>>::_Vector_impl_data" = type { ptr, ptr, ptr }
%struct.PJ_LP = type { double, double }
%struct.PJ_XY = type { double, double }
%union.PJ_COORD = type { [4 x double] }

; Function Attrs: mustprogress nounwind uwtable
define linkonce_odr noundef zeroext i1 @_ZSt5isnand(double noundef %0) #1 comdat {
  %2 = alloca double, align 8
  store double %0, ptr %2, align 8
  %3 = load double, ptr %2, align 8
  %4 = call i1 @llvm.is.fpclass.f64(double %3, i32 3)
  ret i1 %4
}

; Function Attrs: mustprogress uwtable
define internal { double, double } @_ZL15robin_s_inverse5PJ_XYP8PJconsts(double %0, double %1, ptr noundef %2) #0 {
  %4 = alloca %struct.PJ_LP, align 8
  %5 = alloca %struct.PJ_XY, align 8
  %6 = alloca ptr, align 8
  %7 = alloca double, align 8
  %8 = alloca %"struct.(anonymous namespace)::COEFS", align 4
  %9 = alloca i32, align 4
  %10 = alloca i64, align 8
  %11 = alloca double, align 8
  %12 = alloca %union.PJ_COORD, align 8
  %13 = getelementptr inbounds { double, double }, ptr %5, i32 0, i32 0
  store double %0, ptr %13, align 8
  %14 = getelementptr inbounds { double, double }, ptr %5, i32 0, i32 1
  store double %1, ptr %14, align 8
  store ptr %2, ptr %6, align 8
  call void @llvm.memset.p0.i64(ptr align 8 %4, i8 0, i64 16, i1 false)
  %15 = getelementptr inbounds %struct.PJ_XY, ptr %5, i32 0, i32 0
  %16 = load double, ptr %15, align 8
  %17 = fdiv double %16, 8.487000e-01
  %18 = getelementptr inbounds %struct.PJ_LP, ptr %4, i32 0, i32 0
  store double %17, ptr %18, align 8
  %19 = getelementptr inbounds %struct.PJ_XY, ptr %5, i32 0, i32 1
  %20 = load double, ptr %19, align 8
  %21 = fdiv double %20, 1.352300e+00
  %22 = call double @llvm.fabs.f64(double %21)
  %23 = getelementptr inbounds %struct.PJ_LP, ptr %4, i32 0, i32 1
  store double %22, ptr %23, align 8
  %24 = getelementptr inbounds %struct.PJ_LP, ptr %4, i32 0, i32 1
  %25 = load double, ptr %24, align 8
  %26 = fcmp oge double %25, 1.000000e+00
  br i1 %26, label %27, label %46

27:                                               ; preds = %3
  %28 = getelementptr inbounds %struct.PJ_LP, ptr %4, i32 0, i32 1
  %29 = load double, ptr %28, align 8
  %30 = fcmp ogt double %29, 0x3FF000010C6F7A0B
  br i1 %30, label %31, label %34

31:                                               ; preds = %27
  %32 = load ptr, ptr %6, align 8
  %33 = call i32 @proj_errno_set(ptr noundef %32, i32 noundef 2050)
  br label %232

34:                                               ; preds = %27
  %35 = getelementptr inbounds %struct.PJ_XY, ptr %5, i32 0, i32 1
  %36 = load double, ptr %35, align 8
  %37 = fcmp olt double %36, 0.000000e+00
  %38 = select i1 %37, double 0xBFF921FB54442D18, double 0x3FF921FB54442D18
  %39 = getelementptr inbounds %struct.PJ_LP, ptr %4, i32 0, i32 1
  store double %38, ptr %39, align 8
  %40 = load float, ptr getelementptr inbounds ([19 x %"struct.(anonymous namespace)::COEFS"], ptr @_ZL1X, i64 0, i64 18), align 16
  %41 = fpext float %40 to double
  %42 = getelementptr inbounds %struct.PJ_LP, ptr %4, i32 0, i32 0
  %43 = load double, ptr %42, align 8
  %44 = fdiv double %43, %41
  store double %44, ptr %42, align 8
  br label %45

45:                                               ; preds = %34
  br label %231

46:                                               ; preds = %3
  %47 = getelementptr inbounds %struct.PJ_LP, ptr %4, i32 0, i32 1
  %48 = load double, ptr %47, align 8
  %49 = call noundef zeroext i1 @_ZSt5isnand(double noundef %48)
  br i1 %49, label %50, label %51

50:                                               ; preds = %46
  br label %57

51:                                               ; preds = %46
  %52 = getelementptr inbounds %struct.PJ_LP, ptr %4, i32 0, i32 1
  %53 = load double, ptr %52, align 8
  %54 = fmul double %53, 1.800000e+01
  %55 = call double @llvm.floor.f64(double %54)
  %56 = call i64 @lround(double noundef %55) #7
  br label %57

57:                                               ; preds = %51, %50
  %58 = phi i64 [ -1, %50 ], [ %56, %51 ]
  store i64 %58, ptr %10, align 8
  %59 = load i64, ptr %10, align 8
  %60 = icmp slt i64 %59, 0
  br i1 %60, label %64, label %61

61:                                               ; preds = %57
  %62 = load i64, ptr %10, align 8
  %63 = icmp sge i64 %62, 18
  br i1 %63, label %64, label %67

64:                                               ; preds = %61, %57
  %65 = load ptr, ptr %6, align 8
  %66 = call i32 @proj_errno_set(ptr noundef %65, i32 noundef 2050)
  br label %232

67:                                               ; preds = %61
  br label %68

68:                                               ; preds = %95, %67
  %69 = load i64, ptr %10, align 8
  %70 = getelementptr inbounds [19 x %"struct.(anonymous namespace)::COEFS"], ptr @_ZL1Y, i64 0, i64 %69
  %71 = getelementptr inbounds %"struct.(anonymous namespace)::COEFS", ptr %70, i32 0, i32 0
  %72 = load float, ptr %71, align 16
  %73 = fpext float %72 to double
  %74 = getelementptr inbounds %struct.PJ_LP, ptr %4, i32 0, i32 1
  %75 = load double, ptr %74, align 8
  %76 = fcmp ogt double %73, %75
  br i1 %76, label %77, label %80

77:                                               ; preds = %68
  %78 = load i64, ptr %10, align 8
  %79 = add nsw i64 %78, -1
  store i64 %79, ptr %10, align 8
  br label %95

80:                                               ; preds = %68
  %81 = load i64, ptr %10, align 8
  %82 = add nsw i64 %81, 1
  %83 = getelementptr inbounds [19 x %"struct.(anonymous namespace)::COEFS"], ptr @_ZL1Y, i64 0, i64 %82
  %84 = getelementptr inbounds %"struct.(anonymous namespace)::COEFS", ptr %83, i32 0, i32 0
  %85 = load float, ptr %84, align 16
  %86 = fpext float %85 to double
  %87 = getelementptr inbounds %struct.PJ_LP, ptr %4, i32 0, i32 1
  %88 = load double, ptr %87, align 8
  %89 = fcmp ole double %86, %88
  br i1 %89, label %90, label %93

90:                                               ; preds = %80
  %91 = load i64, ptr %10, align 8
  %92 = add nsw i64 %91, 1
  store i64 %92, ptr %10, align 8
  br label %94

93:                                               ; preds = %80
  br label %96

94:                                               ; preds = %90
  br label %95

95:                                               ; preds = %94, %77
  br label %68, !llvm.loop !4

96:                                               ; preds = %93
  %97 = load i64, ptr %10, align 8
  %98 = getelementptr inbounds [19 x %"struct.(anonymous namespace)::COEFS"], ptr @_ZL1Y, i64 0, i64 %97
  call void @llvm.memcpy.p0.p0.i64(ptr align 4 %8, ptr align 16 %98, i64 16, i1 false)
  %99 = getelementptr inbounds %struct.PJ_LP, ptr %4, i32 0, i32 1
  %100 = load double, ptr %99, align 8
  %101 = getelementptr inbounds %"struct.(anonymous namespace)::COEFS", ptr %8, i32 0, i32 0
  %102 = load float, ptr %101, align 4
  %103 = fpext float %102 to double
  %104 = fsub double %100, %103
  %105 = fmul double 5.000000e+00, %104
  %106 = load i64, ptr %10, align 8
  %107 = add nsw i64 %106, 1
  %108 = getelementptr inbounds [19 x %"struct.(anonymous namespace)::COEFS"], ptr @_ZL1Y, i64 0, i64 %107
  %109 = getelementptr inbounds %"struct.(anonymous namespace)::COEFS", ptr %108, i32 0, i32 0
  %110 = load float, ptr %109, align 16
  %111 = getelementptr inbounds %"struct.(anonymous namespace)::COEFS", ptr %8, i32 0, i32 0
  %112 = load float, ptr %111, align 4
  %113 = fsub float %110, %112
  %114 = fpext float %113 to double
  %115 = fdiv double %105, %114
  store double %115, ptr %7, align 8
  store i32 100, ptr %9, align 4
  br label %116

116:                                              ; preds = %167, %96
  %117 = load i32, ptr %9, align 4
  %118 = icmp ne i32 %117, 0
  br i1 %118, label %119, label %170

119:                                              ; preds = %116
  %120 = getelementptr inbounds %"struct.(anonymous namespace)::COEFS", ptr %8, i32 0, i32 0
  %121 = load float, ptr %120, align 4
  %122 = fpext float %121 to double
  %123 = load double, ptr %7, align 8
  %124 = getelementptr inbounds %"struct.(anonymous namespace)::COEFS", ptr %8, i32 0, i32 1
  %125 = load float, ptr %124, align 4
  %126 = fpext float %125 to double
  %127 = load double, ptr %7, align 8
  %128 = getelementptr inbounds %"struct.(anonymous namespace)::COEFS", ptr %8, i32 0, i32 2
  %129 = load float, ptr %128, align 4
  %130 = fpext float %129 to double
  %131 = load double, ptr %7, align 8
  %132 = getelementptr inbounds %"struct.(anonymous namespace)::COEFS", ptr %8, i32 0, i32 3
  %133 = load float, ptr %132, align 4
  %134 = fpext float %133 to double
  %135 = call double @llvm.fmuladd.f64(double %131, double %134, double %130)
  %136 = call double @llvm.fmuladd.f64(double %127, double %135, double %126)
  %137 = call double @llvm.fmuladd.f64(double %123, double %136, double %122)
  %138 = getelementptr inbounds %struct.PJ_LP, ptr %4, i32 0, i32 1
  %139 = load double, ptr %138, align 8
  %140 = fsub double %137, %139
  %141 = getelementptr inbounds %"struct.(anonymous namespace)::COEFS", ptr %8, i32 0, i32 1
  %142 = load float, ptr %141, align 4
  %143 = fpext float %142 to double
  %144 = load double, ptr %7, align 8
  %145 = fmul double 2.000000e+00, %144
  %146 = getelementptr inbounds %"struct.(anonymous namespace)::COEFS", ptr %8, i32 0, i32 2
  %147 = load float, ptr %146, align 4
  %148 = fpext float %147 to double
  %149 = call double @llvm.fmuladd.f64(double %145, double %148, double %143)
  %150 = load double, ptr %7, align 8
  %151 = load double, ptr %7, align 8
  %152 = fmul double %150, %151
  %153 = fmul double %152, 3.000000e+00
  %154 = getelementptr inbounds %"struct.(anonymous namespace)::COEFS", ptr %8, i32 0, i32 3
  %155 = load float, ptr %154, align 4
  %156 = fpext float %155 to double
  %157 = call double @llvm.fmuladd.f64(double %153, double %156, double %149)
  %158 = fdiv double %140, %157
  store double %158, ptr %11, align 8
  %159 = load double, ptr %11, align 8
  %160 = load double, ptr %7, align 8
  %161 = fsub double %160, %159
  store double %161, ptr %7, align 8
  %162 = load double, ptr %11, align 8
  %163 = call double @llvm.fabs.f64(double %162)
  %164 = fcmp olt double %163, 1.000000e-10
  br i1 %164, label %165, label %166

165:                                              ; preds = %119
  br label %170

166:                                              ; preds = %119
  br label %167

167:                                              ; preds = %166
  %168 = load i32, ptr %9, align 4
  %169 = add nsw i32 %168, -1
  store i32 %169, ptr %9, align 4
  br label %116, !llvm.loop !6

170:                                              ; preds = %165, %116
  %171 = load i32, ptr %9, align 4
  %172 = icmp eq i32 %171, 0
  br i1 %172, label %173, label %177

173:                                              ; preds = %170
  %174 = load ptr, ptr %6, align 8
  %175 = getelementptr inbounds %struct.PJconsts, ptr %174, i32 0, i32 0
  %176 = load ptr, ptr %175, align 8
  call void @_Z22proj_context_errno_setP6pj_ctxi(ptr noundef %176, i32 noundef 2050)
  br label %177

177:                                              ; preds = %173, %170
  %178 = load i64, ptr %10, align 8
  %179 = mul nsw i64 5, %178
  %180 = sitofp i64 %179 to double
  %181 = load double, ptr %7, align 8
  %182 = fadd double %180, %181
  %183 = fmul double %182, 0x3F91DF46A2529D39
  %184 = getelementptr inbounds %struct.PJ_LP, ptr %4, i32 0, i32 1
  store double %183, ptr %184, align 8
  %185 = getelementptr inbounds %struct.PJ_XY, ptr %5, i32 0, i32 1
  %186 = load double, ptr %185, align 8
  %187 = fcmp olt double %186, 0.000000e+00
  br i1 %187, label %188, label %193

188:                                              ; preds = %177
  %189 = getelementptr inbounds %struct.PJ_LP, ptr %4, i32 0, i32 1
  %190 = load double, ptr %189, align 8
  %191 = fneg double %190
  %192 = getelementptr inbounds %struct.PJ_LP, ptr %4, i32 0, i32 1
  store double %191, ptr %192, align 8
  br label %193

193:                                              ; preds = %188, %177
  %194 = load i64, ptr %10, align 8
  %195 = getelementptr inbounds [19 x %"struct.(anonymous namespace)::COEFS"], ptr @_ZL1X, i64 0, i64 %194
  %196 = getelementptr inbounds %"struct.(anonymous namespace)::COEFS", ptr %195, i32 0, i32 0
  %197 = load float, ptr %196, align 16
  %198 = fpext float %197 to double
  %199 = load double, ptr %7, align 8
  %200 = load i64, ptr %10, align 8
  %201 = getelementptr inbounds [19 x %"struct.(anonymous namespace)::COEFS"], ptr @_ZL1X, i64 0, i64 %200
  %202 = getelementptr inbounds %"struct.(anonymous namespace)::COEFS", ptr %201, i32 0, i32 1
  %203 = load float, ptr %202, align 4
  %204 = fpext float %203 to double
  %205 = load double, ptr %7, align 8
  %206 = load i64, ptr %10, align 8
  %207 = getelementptr inbounds [19 x %"struct.(anonymous namespace)::COEFS"], ptr @_ZL1X, i64 0, i64 %206
  %208 = getelementptr inbounds %"struct.(anonymous namespace)::COEFS", ptr %207, i32 0, i32 2
  %209 = load float, ptr %208, align 8
  %210 = fpext float %209 to double
  %211 = load double, ptr %7, align 8
  %212 = load i64, ptr %10, align 8
  %213 = getelementptr inbounds [19 x %"struct.(anonymous namespace)::COEFS"], ptr @_ZL1X, i64 0, i64 %212
  %214 = getelementptr inbounds %"struct.(anonymous namespace)::COEFS", ptr %213, i32 0, i32 3
  %215 = load float, ptr %214, align 4
  %216 = fpext float %215 to double
  %217 = call double @llvm.fmuladd.f64(double %211, double %216, double %210)
  %218 = call double @llvm.fmuladd.f64(double %205, double %217, double %204)
  %219 = call double @llvm.fmuladd.f64(double %199, double %218, double %198)
  %220 = getelementptr inbounds %struct.PJ_LP, ptr %4, i32 0, i32 0
  %221 = load double, ptr %220, align 8
  %222 = fdiv double %221, %219
  store double %222, ptr %220, align 8
  %223 = getelementptr inbounds %struct.PJ_LP, ptr %4, i32 0, i32 0
  %224 = load double, ptr %223, align 8
  %225 = call double @llvm.fabs.f64(double %224)
  %226 = fcmp ogt double %225, 0x400921FB54442D18
  br i1 %226, label %227, label %230

227:                                              ; preds = %193
  %228 = load ptr, ptr %6, align 8
  %229 = call i32 @proj_errno_set(ptr noundef %228, i32 noundef 2050)
  call void @_Z16proj_coord_errorv(ptr dead_on_unwind writable sret(%union.PJ_COORD) align 8 %12)
  call void @llvm.memcpy.p0.p0.i64(ptr align 8 %4, ptr align 8 %12, i64 16, i1 false)
  br label %230

230:                                              ; preds = %227, %193
  br label %231

231:                                              ; preds = %230, %45
  br label %232

232:                                              ; preds = %231, %64, %31
  %233 = load { double, double }, ptr %4, align 8
  ret { double, double } %233
}