; Function Attrs: mustprogress uwtable
define internal { double, double } @_ZL15robin_s_inverse5PJ_XYP8PJconsts(double %0, double %1, ptr noundef %2) #0 {
  %4 = alloca %union.PJ_COORD, align 8
  %5 = fdiv double %0, 8.487000e-01
  %6 = fdiv double %1, 1.352300e+00
  %7 = tail call double @llvm.fabs.f64(double %6)
  %8 = fcmp ult double %7, 1.000000e+00
  br i1 %8, label %17, label %9

9:                                                ; preds = %3
  %10 = fcmp ogt double %7, 0x3FF000010C6F7A0B
  br i1 %10, label %11, label %13

11:                                               ; preds = %9
  %12 = tail call i32 @proj_errno_set(ptr noundef %2, i32 noundef 2050)
  br label %89

13:                                               ; preds = %9
  %14 = fcmp olt double %1, 0.000000e+00
  %15 = select i1 %14, double 0xBFF921FB54442D18, double 0x3FF921FB54442D18
  %16 = fdiv double %5, 0x3FE107C840000000
  br label %89

17:                                               ; preds = %3
  %18 = fcmp uno double %6, 0.000000e+00
  br i1 %18, label %.thread, label %19

19:                                               ; preds = %17
  %20 = fmul double %7, 1.800000e+01
  %21 = tail call double @llvm.floor.f64(double %20)
  %22 = tail call i64 @lround(double noundef %21) #6
  %or.cond = icmp ugt i64 %22, 17
  br i1 %or.cond, label %.thread, label %.preheader

.thread:                                          ; preds = %17, %19
  %23 = tail call i32 @proj_errno_set(ptr noundef %2, i32 noundef 2050)
  br label %89

.preheader:                                       ; preds = %19, %.preheader.backedge
  %.0 = phi i64 [ %.0.be, %.preheader.backedge ], [ %22, %19 ]
  %24 = getelementptr inbounds [19 x %"struct.(anonymous namespace)::COEFS"], ptr @_ZL1Y, i64 0, i64 %.0
  %25 = load float, ptr %24, align 16
  %26 = fpext float %25 to double
  %27 = fcmp olt double %7, %26
  br i1 %27, label %28, label %30

28:                                               ; preds = %.preheader
  %29 = add nsw i64 %.0, -1
  br label %.preheader.backedge

30:                                               ; preds = %.preheader
  %31 = add nsw i64 %.0, 1
  %32 = getelementptr inbounds [19 x %"struct.(anonymous namespace)::COEFS"], ptr @_ZL1Y, i64 0, i64 %31
  %33 = load float, ptr %32, align 16
  %34 = fpext float %33 to double
  %35 = fcmp ult double %7, %34
  br i1 %35, label %36, label %.preheader.backedge

.preheader.backedge:                              ; preds = %30, %28
  %.0.be = phi i64 [ %29, %28 ], [ %31, %30 ]
  br label %.preheader, !llvm.loop !4

36:                                               ; preds = %30
  %.sroa.4.0..sroa_idx = getelementptr inbounds i8, ptr %24, i64 4
  %.sroa.4.0.copyload = load float, ptr %.sroa.4.0..sroa_idx, align 4
  %.sroa.6.0..sroa_idx = getelementptr inbounds i8, ptr %24, i64 8
  %.sroa.6.0.copyload = load float, ptr %.sroa.6.0..sroa_idx, align 8
  %.sroa.8.0..sroa_idx = getelementptr inbounds i8, ptr %24, i64 12
  %.sroa.8.0.copyload = load float, ptr %.sroa.8.0..sroa_idx, align 4
  %37 = fsub double %7, %26
  %38 = fmul double %37, 5.000000e+00
  %39 = fsub float %33, %25
  %40 = fpext float %39 to double
  %41 = fdiv double %38, %40
  %42 = fpext float %.sroa.4.0.copyload to double
  %43 = fpext float %.sroa.6.0.copyload to double
  %44 = fpext float %.sroa.8.0.copyload to double
  br label %47

45:                                               ; preds = %47
  %46 = add nsw i32 %.05269, -1
  %.not = icmp eq i32 %46, 0
  br i1 %.not, label %61, label %47, !llvm.loop !6

47:                                               ; preds = %36, %45
  %.05269 = phi i32 [ 100, %36 ], [ %46, %45 ]
  %.05368 = phi double [ %41, %36 ], [ %58, %45 ]
  %48 = tail call double @llvm.fmuladd.f64(double %.05368, double %44, double %43)
  %49 = tail call double @llvm.fmuladd.f64(double %.05368, double %48, double %42)
  %50 = tail call double @llvm.fmuladd.f64(double %.05368, double %49, double %26)
  %51 = fsub double %50, %7
  %52 = fmul double %.05368, 2.000000e+00
  %53 = tail call double @llvm.fmuladd.f64(double %52, double %43, double %42)
  %54 = fmul double %.05368, %.05368
  %55 = fmul double %54, 3.000000e+00
  %56 = tail call double @llvm.fmuladd.f64(double %55, double %44, double %53)
  %57 = fdiv double %51, %56
  %58 = fsub double %.05368, %57
  %59 = tail call double @llvm.fabs.f64(double %57)
  %60 = fcmp olt double %59, 1.000000e-10
  br i1 %60, label %.loopexit, label %45

61:                                               ; preds = %45
  %62 = load ptr, ptr %2, align 8
  tail call void @_Z22proj_context_errno_setP6pj_ctxi(ptr noundef %62, i32 noundef 2050)
  br label %.loopexit

.loopexit:                                        ; preds = %47, %61
  %63 = mul nsw i64 %.0, 5
  %64 = sitofp i64 %63 to double
  %65 = fadd double %58, %64
  %66 = fmul double %65, 0x3F91DF46A2529D39
  %67 = fcmp olt double %1, 0.000000e+00
  %68 = fneg double %66
  %.sroa.9.0 = select i1 %67, double %68, double %66
  %69 = getelementptr inbounds [19 x %"struct.(anonymous namespace)::COEFS"], ptr @_ZL1X, i64 0, i64 %.0
  %70 = load float, ptr %69, align 16
  %71 = fpext float %70 to double
  %72 = getelementptr inbounds i8, ptr %69, i64 4
  %73 = load float, ptr %72, align 4
  %74 = fpext float %73 to double
  %75 = getelementptr inbounds i8, ptr %69, i64 8
  %76 = load float, ptr %75, align 8
  %77 = fpext float %76 to double
  %78 = getelementptr inbounds i8, ptr %69, i64 12
  %79 = load float, ptr %78, align 4
  %80 = fpext float %79 to double
  %81 = tail call double @llvm.fmuladd.f64(double %58, double %80, double %77)
  %82 = tail call double @llvm.fmuladd.f64(double %58, double %81, double %74)
  %83 = tail call double @llvm.fmuladd.f64(double %58, double %82, double %71)
  %84 = fdiv double %5, %83
  %85 = tail call double @llvm.fabs.f64(double %84)
  %86 = fcmp ogt double %85, 0x400921FB54442D18
  br i1 %86, label %87, label %89

87:                                               ; preds = %.loopexit
  %88 = tail call i32 @proj_errno_set(ptr noundef %2, i32 noundef 2050)
  call void @_Z16proj_coord_errorv(ptr dead_on_unwind nonnull writable sret(%union.PJ_COORD) align 8 %4)
  %.sroa.041.0.copyload = load double, ptr %4, align 8
  %.sroa.9.0..sroa_idx = getelementptr inbounds i8, ptr %4, i64 8
  %.sroa.9.0.copyload = load double, ptr %.sroa.9.0..sroa_idx, align 8
  br label %89

89:                                               ; preds = %13, %87, %.loopexit, %.thread, %11
  %.sroa.9.1 = phi double [ %7, %11 ], [ %15, %13 ], [ %7, %.thread ], [ %.sroa.9.0.copyload, %87 ], [ %.sroa.9.0, %.loopexit ]
  %.sroa.041.0 = phi double [ %5, %11 ], [ %16, %13 ], [ %5, %.thread ], [ %.sroa.041.0.copyload, %87 ], [ %84, %.loopexit ]
  %.fca.0.insert = insertvalue { double, double } poison, double %.sroa.041.0, 0
  %.fca.1.insert = insertvalue { double, double } %.fca.0.insert, double %.sroa.9.1, 1
  ret { double, double } %.fca.1.insert
}